target datalayout = "e-m:e-p270:32:32-p271:32:32-p272:64:64-i64:64-i128:128-f80:128-n8:16:32:64-S128"
target triple = "x86_64-pc-linux-gnu"

%struct.H5FL_reg_head_t = type { i8, i32, i32, ptr, i64, ptr }
%struct.H5EA_dbk_page_t = type { %struct.H5C_cache_entry_t, ptr, ptr, i64, i64, i8, ptr, ptr }
%struct.H5C_cache_entry_t = type { ptr, i64, i64, ptr, i8, ptr, i8, i8, i8, i8, i32, i8, i8, i8, i8, i8, i32, ptr, i32, i32, i32, i32, i32, i8, i8, ptr, ptr, ptr, ptr, ptr, ptr, i8, i32, i8, i64, ptr, i64, i64, i32, i8, i32, i32, i8, ptr, ptr, ptr }
%struct.H5EA_hdr_t = type { %struct.H5C_cache_entry_t, %struct.H5EA_create_t, i64, %struct.H5EA_stat_t, %struct.anon.1, i64, i64, i64, ptr, i64, i8, i64, i64, i8, i64, ptr, i64, ptr, i8, ptr, ptr }
%struct.H5EA_create_t = type { ptr, i8, i8, i8, i8, i8, i8 }
%struct.H5EA_stat_t = type { %struct.anon, %struct.anon.0 }
%struct.anon = type { i64, i64, i64 }
%struct.anon.0 = type { i64, i64, i64, i64, i64, i64 }
%struct.anon.1 = type { i64, ptr }

@H5_H5EA_dblk_page_t_reg_free_list = internal global %struct.H5FL_reg_head_t { i8 0, i32 0, i32 0, ptr @.str.13, i64 304, ptr null }, align 8
@.str = private unnamed_addr constant [106 x i8] c"generated/home/dtcxzyw/WorkSpace/Projects/compilers/llvm-opt-benchmark/bench/hdf5/hdf5/src/H5EAdblkpage.c\00", align 1
@H5E_EARRAY_g = external global i64, align 8
@H5E_CANTFREE_g = external global i64, align 8
@__func__.H5EA__dblk_page_dest = private unnamed_addr constant [21 x i8] c"H5EA__dblk_page_dest\00", align 1
@.str.11 = private unnamed_addr constant [58 x i8] c"unable to free extensible array data block element buffer\00", align 1
@H5E_CANTDEC_g = external global i64, align 8
@.str.12 = private unnamed_addr constant [55 x i8] c"can't decrement reference count on shared array header\00", align 1

; Function Attrs: nounwind uwtable
define i32 @H5EA__dblk_page_dest(ptr noundef %0) #0 {
  %2 = alloca ptr, align 8
  %3 = alloca i32, align 4
  %4 = alloca i8, align 1
  store ptr %0, ptr %2, align 8
  store i32 0, ptr %3, align 4
  store i8 0, ptr %4, align 1
  %5 = load ptr, ptr %2, align 8
  %6 = getelementptr inbounds %struct.H5EA_dbk_page_t, ptr %5, i32 0, i32 2
  %7 = load ptr, ptr %6, align 8
  %8 = icmp ne ptr %7, null
  br i1 %8, label %9, label %70

9:                                                ; preds = %1
  %10 = load ptr, ptr %2, align 8
  %11 = getelementptr inbounds %struct.H5EA_dbk_page_t, ptr %10, i32 0, i32 1
  %12 = load ptr, ptr %11, align 8
  %13 = icmp ne ptr %12, null
  br i1 %13, label %14, label %46

14:                                               ; preds = %9
  %15 = load ptr, ptr %2, align 8
  %16 = getelementptr inbounds %struct.H5EA_dbk_page_t, ptr %15, i32 0, i32 2
  %17 = load ptr, ptr %16, align 8
  %18 = load ptr, ptr %2, align 8
  %19 = getelementptr inbounds %struct.H5EA_dbk_page_t, ptr %18, i32 0, i32 2
  %20 = load ptr, ptr %19, align 8
  %21 = getelementptr inbounds %struct.H5EA_hdr_t, ptr %20, i32 0, i32 16
  %22 = load i64, ptr %21, align 8
  %23 = load ptr, ptr %2, align 8
  %24 = getelementptr inbounds %struct.H5EA_dbk_page_t, ptr %23, i32 0, i32 1
  %25 = load ptr, ptr %24, align 8
  %26 = call i32 @H5EA__hdr_free_elmts(ptr noundef %17, i64 noundef %22, ptr noundef %25)
  %27 = icmp slt i32 %26, 0
  br i1 %27, label %28, label %43

28:                                               ; preds = %14
  br label %29

29:                                               ; preds = %28
  br label %30

30:                                               ; preds = %29
  br label %31

31:                                               ; preds = %30
  %32 = load i64, ptr @H5E_EARRAY_g, align 8
  %33 = load i64, ptr @H5E_CANTFREE_g, align 8
  %34 = call i32 (ptr, ptr, i32, i64, i64, ptr, ...) @H5E_printf_stack(ptr noundef @.str, ptr noundef @__func__.H5EA__dblk_page_dest, i32 noundef 306, i64 noundef %32, i64 noundef %33, ptr noundef @.str.11)
  br label %35

35:                                               ; preds = %31
  store i8 1, ptr %4, align 1
  %36 = load i8, ptr %4, align 1
  %37 = trunc i8 %36 to i1
  %38 = zext i1 %37 to i8
  store i8 %38, ptr %4, align 1
  br label %39

39:                                               ; preds = %35
  br label %40

40:                                               ; preds = %39
  store i32 -1, ptr %3, align 4
  br label %73

41:                                               ; No predecessors!
  br label %42

42:                                               ; preds = %41
  br label %43

43:                                               ; preds = %42, %14
  %44 = load ptr, ptr %2, align 8
  %45 = getelementptr inbounds %struct.H5EA_dbk_page_t, ptr %44, i32 0, i32 1
  store ptr null, ptr %45, align 8
  br label %46

46:                                               ; preds = %43, %9
  %47 = load ptr, ptr %2, align 8
  %48 = getelementptr inbounds %struct.H5EA_dbk_page_t, ptr %47, i32 0, i32 2
  %49 = load ptr, ptr %48, align 8
  %50 = call i32 @H5EA__hdr_decr(ptr noundef %49)
  %51 = icmp slt i32 %50, 0
  br i1 %51, label %52, label %67

52:                                               ; preds = %46
  br label %53

53:                                               ; preds = %52
  br label %54

54:                                               ; preds = %53
  br label %55

55:                                               ; preds = %54
  %56 = load i64, ptr @H5E_EARRAY_g, align 8
  %57 = load i64, ptr @H5E_CANTDEC_g, align 8
  %58 = call i32 (ptr, ptr, i32, i64, i64, ptr, ...) @H5E_printf_stack(ptr noundef @.str, ptr noundef @__func__.H5EA__dblk_page_dest, i32 noundef 313, i64 noundef %56, i64 noundef %57, ptr noundef @.str.12)
  br label %59

59:                                               ; preds = %55
  store i8 1, ptr %4, align 1
  %60 = load i8, ptr %4, align 1
  %61 = trunc i8 %60 to i1
  %62 = zext i1 %61 to i8
  store i8 %62, ptr %4, align 1
  br label %63

63:                                               ; preds = %59
  br label %64

64:                                               ; preds = %63
  store i32 -1, ptr %3, align 4
  br label %73

65:                                               ; No predecessors!
  br label %66

66:                                               ; preds = %65
  br label %67

67:                                               ; preds = %66, %46
  %68 = load ptr, ptr %2, align 8
  %69 = getelementptr inbounds %struct.H5EA_dbk_page_t, ptr %68, i32 0, i32 2
  store ptr null, ptr %69, align 8
  br label %70

70:                                               ; preds = %67, %1
  %71 = load ptr, ptr %2, align 8
  %72 = call ptr @H5FL_reg_free(ptr noundef @H5_H5EA_dblk_page_t_reg_free_list, ptr noundef %71)
  store ptr %72, ptr %2, align 8
  br label %73

73:                                               ; preds = %70, %64, %40
  %74 = load i32, ptr %3, align 4
  ret i32 %74
}