; Function Attrs: nounwind uwtable
define range(i32 -1, 1) i32 @H5EA__dblk_page_dest(ptr noundef %0) local_unnamed_addr #0 {
  %2 = getelementptr inbounds i8, ptr %0, i64 256
  %3 = load ptr, ptr %2, align 8
  %.not = icmp eq ptr %3, null
  br i1 %.not, label %26, label %4

4:                                                ; preds = %1
  %5 = getelementptr inbounds i8, ptr %0, i64 248
  %6 = load ptr, ptr %5, align 8
  %.not13 = icmp eq ptr %6, null
  br i1 %.not13, label %17, label %7

7:                                                ; preds = %4
  %8 = getelementptr inbounds i8, ptr %3, i64 448
  %9 = load i64, ptr %8, align 8
  %10 = tail call i32 @H5EA__hdr_free_elmts(ptr noundef nonnull %3, i64 noundef %9, ptr noundef nonnull %6) #2
  %11 = icmp slt i32 %10, 0
  br i1 %11, label %12, label %16

12:                                               ; preds = %7
  %13 = load i64, ptr @H5E_EARRAY_g, align 8
  %14 = load i64, ptr @H5E_CANTFREE_g, align 8
  %15 = tail call i32 (ptr, ptr, i32, i64, i64, ptr, ...) @H5E_printf_stack(ptr noundef nonnull @.str, ptr noundef nonnull @__func__.H5EA__dblk_page_dest, i32 noundef 306, i64 noundef %13, i64 noundef %14, ptr noundef nonnull @.str.11) #2
  br label %28

16:                                               ; preds = %7
  store ptr null, ptr %5, align 8
  %.pre = load ptr, ptr %2, align 8
  br label %17

17:                                               ; preds = %16, %4
  %18 = phi ptr [ %.pre, %16 ], [ %3, %4 ]
  %19 = tail call i32 @H5EA__hdr_decr(ptr noundef %18) #2
  %20 = icmp slt i32 %19, 0
  br i1 %20, label %21, label %25

21:                                               ; preds = %17
  %22 = load i64, ptr @H5E_EARRAY_g, align 8
  %23 = load i64, ptr @H5E_CANTDEC_g, align 8
  %24 = tail call i32 (ptr, ptr, i32, i64, i64, ptr, ...) @H5E_printf_stack(ptr noundef nonnull @.str, ptr noundef nonnull @__func__.H5EA__dblk_page_dest, i32 noundef 313, i64 noundef %22, i64 noundef %23, ptr noundef nonnull @.str.12) #2
  br label %28

25:                                               ; preds = %17
  store ptr null, ptr %2, align 8
  br label %26

26:                                               ; preds = %25, %1
  %27 = tail call ptr @H5FL_reg_free(ptr noundef nonnull @H5_H5EA_dblk_page_t_reg_free_list, ptr noundef nonnull %0) #2
  br label %28

28:                                               ; preds = %26, %21, %12
  %.0 = phi i32 [ -1, %12 ], [ -1, %21 ], [ 0, %26 ]
  ret i32 %.0
}